target datalayout = "e-m:e-p270:32:32-p271:32:32-p272:64:64-i64:64-i128:128-f80:128-n8:16:32:64-S128"
target triple = "x86_64-pc-linux-gnu"

%struct.sentinelRedisInstance = type { i32, ptr, ptr, i64, ptr, ptr, i64, i64, i64, i64, i64, i64, i64, i64, i64, ptr, i32, i64, i64, ptr, ptr, i32, i32, ptr, ptr, i64, i32, i32, i64, ptr, ptr, i32, i32, i64, ptr, i64, i64, i32, i64, i64, i64, i64, ptr, ptr, ptr, ptr }

@.str.48 = private unnamed_addr constant [7 x i8] c"master\00", align 1
@.str.49 = private unnamed_addr constant [6 x i8] c"slave\00", align 1
@.str.50 = private unnamed_addr constant [9 x i8] c"sentinel\00", align 1
@.str.51 = private unnamed_addr constant [8 x i8] c"unknown\00", align 1

; Function Attrs: nounwind uwtable
define dso_local ptr @sentinelRedisInstanceTypeStr(ptr noundef %0) #0 {
  %2 = alloca ptr, align 8
  %3 = alloca ptr, align 8
  store ptr %0, ptr %3, align 8, !tbaa !11
  %4 = load ptr, ptr %3, align 8, !tbaa !11
  %5 = getelementptr inbounds nuw %struct.sentinelRedisInstance, ptr %4, i32 0, i32 0
  %6 = load i32, ptr %5, align 8, !tbaa !34
  %7 = and i32 %6, 1
  %8 = icmp ne i32 %7, 0
  br i1 %8, label %9, label %10

9:                                                ; preds = %1
  store ptr @.str.48, ptr %2, align 8
  br label %25

10:                                               ; preds = %1
  %11 = load ptr, ptr %3, align 8, !tbaa !11
  %12 = getelementptr inbounds nuw %struct.sentinelRedisInstance, ptr %11, i32 0, i32 0
  %13 = load i32, ptr %12, align 8, !tbaa !34
  %14 = and i32 %13, 2
  %15 = icmp ne i32 %14, 0
  br i1 %15, label %16, label %17

16:                                               ; preds = %10
  store ptr @.str.49, ptr %2, align 8
  br label %25

17:                                               ; preds = %10
  %18 = load ptr, ptr %3, align 8, !tbaa !11
  %19 = getelementptr inbounds nuw %struct.sentinelRedisInstance, ptr %18, i32 0, i32 0
  %20 = load i32, ptr %19, align 8, !tbaa !34
  %21 = and i32 %20, 4
  %22 = icmp ne i32 %21, 0
  br i1 %22, label %23, label %24

23:                                               ; preds = %17
  store ptr @.str.50, ptr %2, align 8
  br label %25

24:                                               ; preds = %17
  store ptr @.str.51, ptr %2, align 8
  br label %25

25:                                               ; preds = %24, %23, %16, %9
  %26 = load ptr, ptr %2, align 8
  ret ptr %26
}