; Function Attrs: mustprogress nofree norecurse nosync nounwind willreturn memory(argmem: read) uwtable
define dso_local nonnull ptr @sentinelRedisInstanceTypeStr(ptr noundef readonly captures(none) %0) local_unnamed_addr #14 {
  %2 = load i32, ptr %0, align 8, !tbaa !34
  %3 = and i32 %2, 1
  %.not = icmp eq i32 %3, 0
  br i1 %.not, label %4, label %8

4:                                                ; preds = %1
  %5 = and i32 %2, 2
  %.not4 = icmp eq i32 %5, 0
  br i1 %.not4, label %6, label %8

6:                                                ; preds = %4
  %7 = and i32 %2, 4
  %.not5 = icmp eq i32 %7, 0
  %.str.51..str.50 = select i1 %.not5, ptr @.str.51, ptr @.str.50
  br label %8

8:                                                ; preds = %6, %4, %1
  %.0 = phi ptr [ @.str.48, %1 ], [ @.str.49, %4 ], [ %.str.51..str.50, %6 ]
  ret ptr %.0
}